; Function Attrs: mustprogress nounwind uwtable
define internal void @"_ZN5arrow8internal6FnOnceIFvRKNS_6StatusEEE6FnImplIZNS0_8Executor6SubmitIRZNS_3ipc12_GLOBAL__N_117DecompressBuffersENS_11Compression4typeERKNSA_14IpcReadOptionsEPSt6vectorISt10shared_ptrINS_9ArrayDataEESaISK_EEE3$_0JRiENS_6FutureINS0_5EmptyEEEEENS_6ResultIT1_EENS0_9TaskHintsENS_9StopTokenEOT_DpOT0_E3$_0ED2Ev"(ptr nocapture noundef nonnull align 8 dereferenceable(24) %this) unnamed_addr #1 align 2 personality ptr @__gxx_personality_v0 {
entry:
  store ptr getelementptr inbounds ({ [5 x ptr] }, ptr @"_ZTVN5arrow8internal6FnOnceIFvRKNS_6StatusEEE6FnImplIZNS0_8Executor6SubmitIRZNS_3ipc12_GLOBAL__N_117DecompressBuffersENS_11Compression4typeERKNSA_14IpcReadOptionsEPSt6vectorISt10shared_ptrINS_9ArrayDataEESaISK_EEE3$_0JRiENS_6FutureINS0_5EmptyEEEEENS_6ResultIT1_EENS0_9TaskHintsENS_9StopTokenEOT_DpOT0_E3$_0EE", i64 0, i32 0, i64 2), ptr %this, align 8
  %0 = getelementptr inbounds i8, ptr %this, i64 16
  %fn_.val = load ptr, ptr %0, align 8
  %cmp.not.i.i.i.i.i = icmp eq ptr %fn_.val, null
  br i1 %cmp.not.i.i.i.i.i, label %"_ZZN5arrow8internal8Executor6SubmitIRZNS_3ipc12_GLOBAL__N_117DecompressBuffersENS_11Compression4typeERKNS3_14IpcReadOptionsEPSt6vectorISt10shared_ptrINS_9ArrayDataEESaISD_EEE3$_0JRiENS_6FutureINS0_5EmptyEEEEENS_6ResultIT1_EENS0_9TaskHintsENS_9StopTokenEOT_DpOT0_EN3$_0D2Ev.exit", label %if.then.i.i.i.i.i

if.then.i.i.i.i.i:                                ; preds = %entry
  %_M_weak_count.i.i.i.i.i.i = getelementptr inbounds i8, ptr %fn_.val, i64 12
  %1 = load i8, ptr @__libc_single_threaded, align 1
  %tobool.i.i.not.i.i.i.i.i.i = icmp eq i8 %1, 0
  br i1 %tobool.i.i.not.i.i.i.i.i.i, label %if.else.i.i.i.i.i.i.i, label %if.then.i.i.i.i.i.i.i

if.then.i.i.i.i.i.i.i:                            ; preds = %if.then.i.i.i.i.i
  %2 = load i32, ptr %_M_weak_count.i.i.i.i.i.i, align 4
  %add.i.i.i.i.i.i.i = add nsw i32 %2, -1
  store i32 %add.i.i.i.i.i.i.i, ptr %_M_weak_count.i.i.i.i.i.i, align 4
  br label %_ZN9__gnu_cxx27__exchange_and_add_dispatchEPii.exit.i.i.i.i.i.i

if.else.i.i.i.i.i.i.i:                            ; preds = %if.then.i.i.i.i.i
  %3 = atomicrmw volatile add ptr %_M_weak_count.i.i.i.i.i.i, i32 -1 acq_rel, align 4
  br label %_ZN9__gnu_cxx27__exchange_and_add_dispatchEPii.exit.i.i.i.i.i.i

_ZN9__gnu_cxx27__exchange_and_add_dispatchEPii.exit.i.i.i.i.i.i: ; preds = %if.else.i.i.i.i.i.i.i, %if.then.i.i.i.i.i.i.i
  %retval.i.0.i.i.i.i.i.i = phi i32 [ %2, %if.then.i.i.i.i.i.i.i ], [ %3, %if.else.i.i.i.i.i.i.i ]
  %cmp.i.i.i.i.i.i = icmp eq i32 %retval.i.0.i.i.i.i.i.i, 1
  br i1 %cmp.i.i.i.i.i.i, label %if.then.i.i.i.i.i.i, label %"_ZZN5arrow8internal8Executor6SubmitIRZNS_3ipc12_GLOBAL__N_117DecompressBuffersENS_11Compression4typeERKNS3_14IpcReadOptionsEPSt6vectorISt10shared_ptrINS_9ArrayDataEESaISD_EEE3$_0JRiENS_6FutureINS0_5EmptyEEEEENS_6ResultIT1_EENS0_9TaskHintsENS_9StopTokenEOT_DpOT0_EN3$_0D2Ev.exit"

if.then.i.i.i.i.i.i:                              ; preds = %_ZN9__gnu_cxx27__exchange_and_add_dispatchEPii.exit.i.i.i.i.i.i
  %vtable.i.i.i.i.i.i = load ptr, ptr %fn_.val, align 8
  %vfn.i.i.i.i.i.i = getelementptr inbounds i8, ptr %vtable.i.i.i.i.i.i, i64 24
  %4 = load ptr, ptr %vfn.i.i.i.i.i.i, align 8
  tail call void %4(ptr noundef nonnull align 8 dereferenceable(16) %fn_.val) #30
  br label %"_ZZN5arrow8internal8Executor6SubmitIRZNS_3ipc12_GLOBAL__N_117DecompressBuffersENS_11Compression4typeERKNS3_14IpcReadOptionsEPSt6vectorISt10shared_ptrINS_9ArrayDataEESaISD_EEE3$_0JRiENS_6FutureINS0_5EmptyEEEEENS_6ResultIT1_EENS0_9TaskHintsENS_9StopTokenEOT_DpOT0_EN3$_0D2Ev.exit"

"_ZZN5arrow8internal8Executor6SubmitIRZNS_3ipc12_GLOBAL__N_117DecompressBuffersENS_11Compression4typeERKNS3_14IpcReadOptionsEPSt6vectorISt10shared_ptrINS_9ArrayDataEESaISD_EEE3$_0JRiENS_6FutureINS0_5EmptyEEEEENS_6ResultIT1_EENS0_9TaskHintsENS_9StopTokenEOT_DpOT0_EN3$_0D2Ev.exit": ; preds = %entry, %_ZN9__gnu_cxx27__exchange_and_add_dispatchEPii.exit.i.i.i.i.i.i, %if.then.i.i.i.i.i.i
  ret void
}